EXPORTS
	??0CVIMPSTUtilsTextQueryDialog@@AAE@AAVTDes16@@ABW4TTone@CAknQueryDialog@@HH@Z @ 1 NONAME ; CVIMPSTUtilsTextQueryDialog::CVIMPSTUtilsTextQueryDialog(class TDes16 &, enum CAknQueryDialog::TTone const &, int, int)
	??1CVIMPSTUtilsTextQueryDialog@@UAE@XZ @ 2 NONAME ; CVIMPSTUtilsTextQueryDialog::~CVIMPSTUtilsTextQueryDialog(void)
	?Bitmap@CVIMPSTEngineImageHandler@@QAEAAVCFbsBitmap@@XZ @ 3 NONAME ; class CFbsBitmap & CVIMPSTEngineImageHandler::Bitmap(void)
	?CombineStringFromResourceLC@VIMPSTUtils@@SAPAVHBufC16@@HH@Z @ 4 NONAME ; class HBufC16 * VIMPSTUtils::CombineStringFromResourceLC(int, int)
	?ConstructL@CVIMPSTUtilsWaitNote@@AAEXABVTDesC16@@HHPAVMVIMPSTUtilsWaitNoteObserver@@@Z @ 5 NONAME ; void CVIMPSTUtilsWaitNote::ConstructL(class TDesC16 const &, int, int, class MVIMPSTUtilsWaitNoteObserver *)
	?DialogDismissedL@CVIMPSTUtilsWaitNote@@MAEXH@Z @ 6 NONAME ; void CVIMPSTUtilsWaitNote::DialogDismissedL(int)
	?DismissDialog@CVIMPSTUtilsWaitNote@@QAEXXZ @ 7 NONAME ; void CVIMPSTUtilsWaitNote::DismissDialog(void)
	?DisplayErrorNoteL@VIMPSTUtilsDialog@@SAHABVTDesC16@@H@Z @ 8 NONAME ; int VIMPSTUtilsDialog::DisplayErrorNoteL(class TDesC16 const &, int)
	?DisplayId@VIMPSTUtils@@SA?AVTPtrC16@@ABVTDesC16@@H@Z @ 9 NONAME ; class TPtrC16 VIMPSTUtils::DisplayId(class TDesC16 const &, int)
	?DisplayListQueryDialogL@VIMPSTUtilsDialog@@SAHPAHPAVMDesC16Array@@HABVTDesC16@@2HH@Z @ 10 NONAME ; int VIMPSTUtilsDialog::DisplayListQueryDialogL(int *, class MDesC16Array *, int, class TDesC16 const &, class TDesC16 const &, int, int)
	?DisplayNoteDialogL@VIMPSTUtilsDialog@@SAHABVTDesC16@@HABW4TTimeout@CAknNoteDialog@@@Z @ 11 NONAME ; int VIMPSTUtilsDialog::DisplayNoteDialogL(class TDesC16 const &, int, enum CAknNoteDialog::TTimeout const &)
	?DisplayQueryDialogL@VIMPSTUtilsDialog@@SAHHABVTDesC16@@@Z @ 12 NONAME ; int VIMPSTUtilsDialog::DisplayQueryDialogL(int, class TDesC16 const &)
	?DisplayTextQueryDialogL@VIMPSTUtilsDialog@@SAHAAVTDes16@@HHHHW4TLeftSoftkey@1@W4TInitialSelectionMode@1@H@Z @ 13 NONAME ; int VIMPSTUtilsDialog::DisplayTextQueryDialogL(class TDes16 &, int, int, int, int, enum VIMPSTUtilsDialog::TLeftSoftkey, enum VIMPSTUtilsDialog::TInitialSelectionMode, int)
	?LoadResourceL@VIMPSTUtils@@SAPAVHBufC16@@H@Z @ 14 NONAME ; class HBufC16 * VIMPSTUtils::LoadResourceL(int)
	?LoadResourceL@VIMPSTUtils@@SAPAVHBufC16@@HABVTDesC16@@@Z @ 15 NONAME ; class HBufC16 * VIMPSTUtils::LoadResourceL(int, class TDesC16 const &)
	?NewL@CVIMPSTEngineImageHandler@@SAPAV1@XZ @ 16 NONAME ; class CVIMPSTEngineImageHandler * CVIMPSTEngineImageHandler::NewL(void)
	?NewL@CVIMPSTUtilsTextQueryDialog@@SAPAV1@AAVTDes16@@ABW4TTone@CAknQueryDialog@@HH@Z @ 17 NONAME ; class CVIMPSTUtilsTextQueryDialog * CVIMPSTUtilsTextQueryDialog::NewL(class TDes16 &, enum CAknQueryDialog::TTone const &, int, int)
	?NewLC@CVIMPSTEngineImageHandler@@SAPAV1@XZ @ 18 NONAME ; class CVIMPSTEngineImageHandler * CVIMPSTEngineImageHandler::NewLC(void)
	?OfferKeyEventL@CVIMPSTUtilsTextQueryDialog@@UAE?AW4TKeyResponse@@ABUTKeyEvent@@W4TEventCode@@@Z @ 19 NONAME ; enum TKeyResponse CVIMPSTUtilsTextQueryDialog::OfferKeyEventL(struct TKeyEvent const &, enum TEventCode)
	?OkToExitL@CVIMPSTUtilsTextQueryDialog@@UAEHH@Z @ 20 NONAME ; int CVIMPSTUtilsTextQueryDialog::OkToExitL(int)
	?ProcessFromBitmapL@CVIMPSTEngineImageHandler@@QAEPAVHBufC8@@AAVCFbsBitmap@@@Z @ 21 NONAME ; class HBufC8 * CVIMPSTEngineImageHandler::ProcessFromBitmapL(class CFbsBitmap &)
	?ProcessImageFromDataL@CVIMPSTEngineImageHandler@@QAEPAVHBufC8@@ABVTDesC8@@0@Z @ 22 NONAME ; class HBufC8 * CVIMPSTEngineImageHandler::ProcessImageFromDataL(class TDesC8 const &, class TDesC8 const &)
	?ProcessImageFromFileL@CVIMPSTEngineImageHandler@@QAEPAVHBufC8@@ABVTDesC16@@ABVTDesC8@@@Z @ 23 NONAME ; class HBufC8 * CVIMPSTEngineImageHandler::ProcessImageFromFileL(class TDesC16 const &, class TDesC8 const &)
	?SetObserver@CVIMPSTUtilsWaitNote@@QAEXPAVMVIMPSTUtilsWaitNoteObserver@@@Z @ 24 NONAME ; void CVIMPSTUtilsWaitNote::SetObserver(class MVIMPSTUtilsWaitNoteObserver *)
	?ShowNoteL@VIMPSTUtilsNoteMapper@@SAXHABVTDesC16@@@Z @ 25 NONAME ; void VIMPSTUtilsNoteMapper::ShowNoteL(int, class TDesC16 const &)
	?ShowWaitNoteL@CVIMPSTUtilsWaitNote@@SAPAV1@ABVTDesC16@@HHPAVMVIMPSTUtilsWaitNoteObserver@@@Z @ 26 NONAME ; class CVIMPSTUtilsWaitNote * CVIMPSTUtilsWaitNote::ShowWaitNoteL(class TDesC16 const &, int, int, class MVIMPSTUtilsWaitNoteObserver *)
	?ShowWaitNoteL@CVIMPSTUtilsWaitNote@@SAPAV1@HHHPAVMVIMPSTUtilsWaitNoteObserver@@@Z @ 27 NONAME ; class CVIMPSTUtilsWaitNote * CVIMPSTUtilsWaitNote::ShowWaitNoteL(int, int, int, class MVIMPSTUtilsWaitNoteObserver *)
	?ShowWaitNoteLC@CVIMPSTUtilsWaitNote@@SAPAV1@ABVTDesC16@@HHPAVMVIMPSTUtilsWaitNoteObserver@@@Z @ 28 NONAME ; class CVIMPSTUtilsWaitNote * CVIMPSTUtilsWaitNote::ShowWaitNoteLC(class TDesC16 const &, int, int, class MVIMPSTUtilsWaitNoteObserver *)
	?ShowWaitNoteLC@CVIMPSTUtilsWaitNote@@SAPAV1@HHHPAVMVIMPSTUtilsWaitNoteObserver@@@Z @ 29 NONAME ; class CVIMPSTUtilsWaitNote * CVIMPSTUtilsWaitNote::ShowWaitNoteLC(int, int, int, class MVIMPSTUtilsWaitNoteObserver *)
	?UpdateLeftSoftKeyL@CVIMPSTUtilsTextQueryDialog@@UAEXXZ @ 30 NONAME ; void CVIMPSTUtilsTextQueryDialog::UpdateLeftSoftKeyL(void)

