EXPORTS
	?LibEntryL@@YAPAVCScriptBase@@AAVCTestModuleIf@@@Z @ 1 NONAME ; class CScriptBase * __cdecl LibEntryL(class CTestModuleIf &)
	?RemoveObserver@CPbk2StoreConfiguration@@QAEXAAVMPbk2StoreConfigurationObserver@@@Z @ 2 NONAME ; void CPbk2StoreConfiguration::RemoveObserver(class MPbk2StoreConfigurationObserver &)
	?FieldTypeFilter@CVPbkContactViewDefinition@@QBEPAVCVPbkFieldTypeSelector@@XZ @ 3 NONAME ; class CVPbkFieldTypeSelector * CVPbkContactViewDefinition::FieldTypeFilter(void) const
	?SubViewAt@CVPbkContactViewDefinition@@QAEAAV1@H@Z @ 4 NONAME ; class CVPbkContactViewDefinition & CVPbkContactViewDefinition::SubViewAt(int)
	?RunError@CActive@@MAEHH@Z @ 5 NONAME ; int CActive::RunError(int)
	?UriDes@TVPbkContactStoreUriPtr@@QBEABVTDesC16@@XZ @ 6 NONAME ; class TDesC16 const & TVPbkContactStoreUriPtr::UriDes(void) const
	?NewL@CPbk2SortOrderManager@@SAPAV1@ABVMVPbkFieldTypeList@@PAVRFs@@@Z @ 7 NONAME ; class CPbk2SortOrderManager * CPbk2SortOrderManager::NewL(class MVPbkFieldTypeList const &, class RFs *)
	?SimGlobalFdnUri@VPbkContactStoreUris@@YAABVTDesC16@@XZ @ 8 NONAME ; class TDesC16 const & VPbkContactStoreUris::SimGlobalFdnUri(void)
	?SetContactSelector@CVPbkContactViewDefinition@@QAEXPAVMVPbkContactSelector@@@Z @ 9 NONAME ; void CVPbkContactViewDefinition::SetContactSelector(class MVPbkContactSelector *)
	?Cancel@CActive@@QAEXXZ @ 10 NONAME ; void CActive::Cancel(void)
	?NewLC@CVPbkContactViewDefinition@@SAPAV1@AAVTResourceReader@@@Z @ 11 NONAME ; class CVPbkContactViewDefinition * CVPbkContactViewDefinition::NewLC(class TResourceReader &)
	?LoadContactStoreL@CVPbkContactManager@@QAEXABVTVPbkContactStoreUriPtr@@@Z @ 12 NONAME ; void CVPbkContactManager::LoadContactStoreL(class TVPbkContactStoreUriPtr const &)
	?ContactAttributeManagerL@CVPbkContactManager@@QAEAAVMVPbkContactAttributeManager@@XZ @ 13 NONAME ; class MVPbkContactAttributeManager & CVPbkContactManager::ContactAttributeManagerL(void)
	?Uri@CVPbkContactViewDefinition@@QBEABVTDesC16@@XZ @ 14 NONAME ; class TDesC16 const & CVPbkContactViewDefinition::Uri(void) const
	?ExternalizeL@TVPbkContactStoreUriPtr@@UBEXAAVRWriteStream@@@Z @ 15 NONAME ; void TVPbkContactStoreUriPtr::ExternalizeL(class RWriteStream &) const
	?SimGlobalSdnUri@VPbkContactStoreUris@@YAABVTDesC16@@XZ @ 16 NONAME ; class TDesC16 const & VPbkContactStoreUris::SimGlobalSdnUri(void)
	?NewL@CVPbkContactStoreUriArray@@SAPAV1@XZ @ 17 NONAME ; class CVPbkContactStoreUriArray * CVPbkContactStoreUriArray::NewL(void)
	?SetId@CVPbkContactViewDefinition@@QAEXH@Z @ 18 NONAME ; void CVPbkContactViewDefinition::SetId(int)
	?CompressStoresL@CVPbkContactManager@@QAEPAVMVPbkContactOperationBase@@AAVMVPbkBatchOperationObserver@@@Z @ 19 NONAME ; class MVPbkContactOperationBase * CVPbkContactManager::CompressStoresL(class MVPbkBatchOperationObserver &)
	?Cast@MVPbkContactFieldTextData@@SAAAV1@AAVMVPbkContactFieldData@@@Z @ 20 NONAME ; class MVPbkContactFieldTextData & MVPbkContactFieldTextData::Cast(class MVPbkContactFieldData &)
	?DefaultSavingStoreL@CPbk2StoreConfiguration@@QBE?AVTVPbkContactStoreUriPtr@@XZ @ 21 NONAME ; class TVPbkContactStoreUriPtr CPbk2StoreConfiguration::DefaultSavingStoreL(void) const
	?Set@TVPbkContactStoreUriPtr@@QAEXABV1@@Z @ 22 NONAME ; void TVPbkContactStoreUriPtr::Set(class TVPbkContactStoreUriPtr const &)
	?Reset@CVPbkContactLinkArray@@QAEXXZ @ 23 NONAME ; void CVPbkContactLinkArray::Reset(void)
	?Pbk2AppUi@Phonebook2@@YAPAVMPbk2AppUi@@XZ @ 24 NONAME ; class MPbk2AppUi * Phonebook2::Pbk2AppUi(void)
	?Length@TVPbkContactStoreUriPtr@@QBEHXZ @ 25 NONAME ; int TVPbkContactStoreUriPtr::Length(void) const
	?PackLC@CVPbkContactStoreUriArray@@QBEPAVHBufC8@@XZ @ 26 NONAME ; class HBufC8 * CVPbkContactStoreUriArray::PackLC(void) const
	?PackedBufferSize@CVPbkContactLinkArray@@QBEHXZ @ 27 NONAME ; int CVPbkContactLinkArray::PackedBufferSize(void) const
	?Add@CActiveScheduler@@SAXPAVCActive@@@Z @ 28 NONAME ; void CActiveScheduler::Add(class CActive *)
	?SetPriority@CActive@@QAEXH@Z @ 29 NONAME ; void CActive::SetPriority(int)
	?RemoveObserver@CPbk2SortOrderManager@@QAEXAAVMPbk2SortOrderObserver@@@Z @ 30 NONAME ; void CPbk2SortOrderManager::RemoveObserver(class MPbk2SortOrderObserver &)
	?AddContactStoreURIL@CPbk2StoreConfiguration@@QAEXVTVPbkContactStoreUriPtr@@@Z @ 31 NONAME ; void CPbk2StoreConfiguration::AddContactStoreURIL(class TVPbkContactStoreUriPtr)
	?AddObserverL@CPbk2StoreConfiguration@@QAEXAAVMPbk2StoreConfigurationObserver@@@Z @ 32 NONAME ; void CPbk2StoreConfiguration::AddObserverL(class MPbk2StoreConfigurationObserver &)
	?RemoveContactStoreURIL@CPbk2StoreConfiguration@@QAEXVTVPbkContactStoreUriPtr@@@Z @ 33 NONAME ; void CPbk2StoreConfiguration::RemoveContactStoreURIL(class TVPbkContactStoreUriPtr)
	??0CActive@@IAE@H@Z @ 34 NONAME ; CActive::CActive(int)
	?AddDefaultSavingStoreObserverL@CPbk2StoreConfiguration@@QAEXAAVMPbk2DefaultSavingStoreObserver@@@Z @ 35 NONAME ; void CPbk2StoreConfiguration::AddDefaultSavingStoreObserverL(class MPbk2DefaultSavingStoreObserver &)
	?NameDisplayOrder@CPbk2SortOrderManager@@QBE?AW4TPbk2NameDisplayOrder@1@XZ @ 36 NONAME ; enum CPbk2SortOrderManager::TPbk2NameDisplayOrder CPbk2SortOrderManager::NameDisplayOrder(void) const
	?Name@CVPbkContactViewDefinition@@QBEABVTDesC16@@XZ @ 37 NONAME ; class TDesC16 const & CVPbkContactViewDefinition::Name(void) const
	?Type@CVPbkContactViewDefinition@@QBE?AW4TVPbkContactViewType@@XZ @ 38 NONAME ; enum TVPbkContactViewType CVPbkContactViewDefinition::Type(void) const
	?AsyncStop@CActiveSchedulerWait@@QAEXXZ @ 39 NONAME ; void CActiveSchedulerWait::AsyncStop(void)
	?Cast@MVPbkContactFieldTextData@@SAABV1@ABVMVPbkContactFieldData@@@Z @ 40 NONAME ; class MVPbkContactFieldTextData const & MVPbkContactFieldTextData::Cast(class MVPbkContactFieldData const &)
	?ResetAndDestroy@CVPbkContactLinkArray@@QAEXXZ @ 41 NONAME ; void CVPbkContactLinkArray::ResetAndDestroy(void)
	?CreateLinksLC@CVPbkContactManager@@QBEPAVMVPbkContactLinkArray@@ABVTDesC8@@@Z @ 42 NONAME ; class MVPbkContactLinkArray * CVPbkContactManager::CreateLinksLC(class TDesC8 const &) const
	?Remove@CVPbkContactStoreUriArray@@QAEXABVTVPbkContactStoreUriPtr@@@Z @ 43 NONAME ; void CVPbkContactStoreUriArray::Remove(class TVPbkContactStoreUriPtr const &)
	?Count@CVPbkContactStoreUriArray@@QBEHXZ @ 44 NONAME ; int CVPbkContactStoreUriArray::Count(void) const
	?SetUriL@CVPbkContactViewDefinition@@QAEXABVTDesC16@@@Z @ 45 NONAME ; void CVPbkContactViewDefinition::SetUriL(class TDesC16 const &)
	?CurrentConfigurationL@CPbk2StoreConfiguration@@QBEPAVCVPbkContactStoreUriArray@@XZ @ 46 NONAME ; class CVPbkContactStoreUriArray * CPbk2StoreConfiguration::CurrentConfigurationL(void) const
	?RemoveSupportedContactStoreURIL@CPbk2StoreConfiguration@@QAEXVTVPbkContactStoreUriPtr@@@Z @ 47 NONAME ; void CPbk2StoreConfiguration::RemoveSupportedContactStoreURIL(class TVPbkContactStoreUriPtr)
	?RetrieveContactL@CVPbkContactManager@@QBEPAVMVPbkContactOperationBase@@ABVMVPbkContactLink@@AAVMVPbkSingleContactOperationObserver@@@Z @ 48 NONAME ; class MVPbkContactOperationBase * CVPbkContactManager::RetrieveContactL(class MVPbkContactLink const &, class MVPbkSingleContactOperationObserver &) const
	?NewL@CVPbkContactViewDefinition@@SAPAV1@XZ @ 49 NONAME ; class CVPbkContactViewDefinition * CVPbkContactViewDefinition::NewL(void)
	?Id@CVPbkContactViewDefinition@@QBEHXZ @ 50 NONAME ; int CVPbkContactViewDefinition::Id(void) const
	?AddSubViewL@CVPbkContactViewDefinition@@QAEXPAV1@@Z @ 51 NONAME ; void CVPbkContactViewDefinition::AddSubViewL(class CVPbkContactViewDefinition *)
	??1CActive@@UAE@XZ @ 52 NONAME ; CActive::~CActive(void)
	?Cast@MVPbkContactFieldBinaryData@@SAAAV1@AAVMVPbkContactFieldData@@@Z @ 53 NONAME ; class MVPbkContactFieldBinaryData & MVPbkContactFieldBinaryData::Cast(class MVPbkContactFieldData &)
	?ContactStoresL@CVPbkContactManager@@QAEAAVMVPbkContactStoreList@@XZ @ 54 NONAME ; class MVPbkContactStoreList & CVPbkContactManager::ContactStoresL(void)
	?NewL@CVPbkContactManager@@SAPAV1@VTSecurityInfo@@ABVCVPbkContactStoreUriArray@@PAVRFs@@@Z @ 55 NONAME ; class CVPbkContactManager * CVPbkContactManager::NewL(class TSecurityInfo, class CVPbkContactStoreUriArray const &, class RFs *)
	?MatchPhoneNumberL@CVPbkContactManager@@QAEPAVMVPbkContactOperationBase@@ABVTDesC16@@HAAVMVPbkContactFindObserver@@@Z @ 56 NONAME ; class MVPbkContactOperationBase * CVPbkContactManager::MatchPhoneNumberL(class TDesC16 const &, int, class MVPbkContactFindObserver &)
	?DeleteContactsL@CVPbkContactManager@@QAEPAVMVPbkContactOperationBase@@ABVMVPbkContactLinkArray@@AAVMVPbkBatchOperationObserver@@@Z @ 57 NONAME ; class MVPbkContactOperationBase * CVPbkContactManager::DeleteContactsL(class MVPbkContactLinkArray const &, class MVPbkBatchOperationObserver &)
	?Cast@MVPbkContactFieldUriData@@SAAAV1@AAVMVPbkContactFieldData@@@Z @ 58 NONAME ; class MVPbkContactFieldUriData & MVPbkContactFieldUriData::Cast(class MVPbkContactFieldData &)
	?CreateContactViewLC@CVPbkContactManager@@QBEPAVMVPbkContactViewBase@@AAVMVPbkContactViewObserver@@ABVCVPbkContactViewDefinition@@ABVMVPbkFieldTypeList@@@Z @ 59 NONAME ; class MVPbkContactViewBase * CVPbkContactManager::CreateContactViewLC(class MVPbkContactViewObserver &, class CVPbkContactViewDefinition const &, class MVPbkFieldTypeList const &) const
	?NewLC@CVPbkContactViewDefinition@@SAPAV1@XZ @ 60 NONAME ; class CVPbkContactViewDefinition * CVPbkContactViewDefinition::NewLC(void)
	?DefaultCntDbUri@VPbkContactStoreUris@@YAABVTDesC16@@XZ @ 61 NONAME ; class TDesC16 const & VPbkContactStoreUris::DefaultCntDbUri(void)
	?RemoveDefaultSavingStoreObserver@CPbk2StoreConfiguration@@QAEXAAVMPbk2DefaultSavingStoreObserver@@@Z @ 62 NONAME ; void CPbk2StoreConfiguration::RemoveDefaultSavingStoreObserver(class MPbk2DefaultSavingStoreObserver &)
	?AddSupportedContactStoreURIL@CPbk2StoreConfiguration@@QAEXVTVPbkContactStoreUriPtr@@@Z @ 63 NONAME ; void CPbk2StoreConfiguration::AddSupportedContactStoreURIL(class TVPbkContactStoreUriPtr)
	?NewLC@CVPbkContactLinkArray@@SAPAV1@ABVTDesC8@@ABVMVPbkContactStoreList@@@Z @ 64 NONAME ; class CVPbkContactLinkArray * CVPbkContactLinkArray::NewLC(class TDesC8 const &, class MVPbkContactStoreList const &)
	?Remove@CVPbkContactLinkArray@@QAEXH@Z @ 65 NONAME ; void CVPbkContactLinkArray::Remove(int)
	?FindL@CVPbkContactManager@@QAEPAVMVPbkContactOperationBase@@ABVTDesC16@@ABVMVPbkFieldTypeList@@AAVMVPbkContactFindObserver@@@Z @ 66 NONAME ; class MVPbkContactOperationBase * CVPbkContactManager::FindL(class TDesC16 const &, class MVPbkFieldTypeList const &, class MVPbkContactFindObserver &)
	?SimGlobalOwnNumberUri@VPbkContactStoreUris@@YAABVTDesC16@@XZ @ 67 NONAME ; class TDesC16 const & VPbkContactStoreUris::SimGlobalOwnNumberUri(void)
	?SetNameDisplayOrderL@CPbk2SortOrderManager@@QAEXW4TPbk2NameDisplayOrder@1@ABVTDesC16@@@Z @ 68 NONAME ; void CPbk2SortOrderManager::SetNameDisplayOrderL(enum CPbk2SortOrderManager::TPbk2NameDisplayOrder, class TDesC16 const &)
	?SubViewCount@CVPbkContactViewDefinition@@QBEHXZ @ 69 NONAME ; int CVPbkContactViewDefinition::SubViewCount(void) const
	?NewL@CVPbkContactLinkArray@@SAPAV1@XZ @ 70 NONAME ; class CVPbkContactLinkArray * CVPbkContactLinkArray::NewL(void)
	?Extension_@CActive@@MAEHIAAPAXPAX@Z @ 71 NONAME ; int CActive::Extension_(unsigned int, void * &, void *)
	?NewLC@CVPbkContactStoreUriArray@@SAPAV1@ABVTDesC8@@@Z @ 72 NONAME ; class CVPbkContactStoreUriArray * CVPbkContactStoreUriArray::NewLC(class TDesC8 const &)
	?IsIncluded@CVPbkContactStoreUriArray@@QBEHABVTVPbkContactStoreUriPtr@@@Z @ 73 NONAME ; int CVPbkContactStoreUriArray::IsIncluded(class TVPbkContactStoreUriPtr const &) const
	?CreateLinksLC@CVPbkContactManager@@QBEPAVMVPbkContactLinkArray@@AAVRReadStream@@@Z @ 74 NONAME ; class MVPbkContactLinkArray * CVPbkContactManager::CreateLinksLC(class RReadStream &) const
	?SubViewAt@CVPbkContactViewDefinition@@QBEABV1@H@Z @ 75 NONAME ; class CVPbkContactViewDefinition const & CVPbkContactViewDefinition::SubViewAt(int) const
	?SetFieldTypeFilterL@CVPbkContactViewDefinition@@QAEXPAVCVPbkFieldTypeSelector@@@Z @ 76 NONAME ; void CVPbkContactViewDefinition::SetFieldTypeFilterL(class CVPbkFieldTypeSelector *)
	?SetContactViewL@CPbk2SortOrderManager@@QAEXAAVMVPbkContactViewBase@@@Z @ 77 NONAME ; void CPbk2SortOrderManager::SetContactViewL(class MVPbkContactViewBase &)
	?NewLC@CVPbkContactViewDefinition@@SAPAV1@ABV1@@Z @ 78 NONAME ; class CVPbkContactViewDefinition * CVPbkContactViewDefinition::NewLC(class CVPbkContactViewDefinition const &)
	?Component@TVPbkContactStoreUriPtr@@QBE?BVTPtrC16@@W4TVPbkContactStoreUriComponent@1@@Z @ 79 NONAME ; class TPtrC16 const TVPbkContactStoreUriPtr::Component(enum TVPbkContactStoreUriPtr::TVPbkContactStoreUriComponent) const
	?Cast@MVPbkContactFieldBinaryData@@SAABV1@ABVMVPbkContactFieldData@@@Z @ 80 NONAME ; class MVPbkContactFieldBinaryData const & MVPbkContactFieldBinaryData::Cast(class MVPbkContactFieldData const &)
	?FsSession@CVPbkContactManager@@QAEAAVRFs@@XZ @ 81 NONAME ; class RFs & CVPbkContactManager::FsSession(void)
	??1CActiveSchedulerWait@@UAE@XZ @ 82 NONAME ; CActiveSchedulerWait::~CActiveSchedulerWait(void)
	?Cast@MVPbkContactFieldUriData@@SAABV1@ABVMVPbkContactFieldData@@@Z @ 83 NONAME ; class MVPbkContactFieldUriData const & MVPbkContactFieldUriData::Cast(class MVPbkContactFieldData const &)
	??ACVPbkContactStoreUriArray@@QBE?AVTVPbkContactStoreUriPtr@@H@Z @ 84 NONAME ; class TVPbkContactStoreUriPtr CVPbkContactStoreUriArray::operator[](int) const
	?InsertL@CVPbkContactLinkArray@@QAEXPAVMVPbkContactLink@@H@Z @ 85 NONAME ; void CVPbkContactLinkArray::InsertL(class MVPbkContactLink *, int)
	?SetActive@CActive@@IAEXXZ @ 86 NONAME ; void CActive::SetActive(void)
	??0TVPbkContactStoreUriPtr@@QAE@ABVTDesC16@@@Z @ 87 NONAME ; TVPbkContactStoreUriPtr::TVPbkContactStoreUriPtr(class TDesC16 const &)
	?Compare@TVPbkContactStoreUriPtr@@QBEHABVTDesC16@@W4TVPbkContactStoreUriComponent@1@@Z @ 88 NONAME ; int TVPbkContactStoreUriPtr::Compare(class TDesC16 const &, enum TVPbkContactStoreUriPtr::TVPbkContactStoreUriComponent) const
	?Sharing@CVPbkContactViewDefinition@@QBE?AW4TVPbkContactViewSharing@@XZ @ 89 NONAME ; enum TVPbkContactViewSharing CVPbkContactViewDefinition::Sharing(void) const
	?SupportedStoreConfigurationL@CPbk2StoreConfiguration@@QBEPAVCVPbkContactStoreUriArray@@XZ @ 90 NONAME ; class CVPbkContactStoreUriArray * CPbk2StoreConfiguration::SupportedStoreConfigurationL(void) const
	?SimGlobalAdnUri@VPbkContactStoreUris@@YAABVTDesC16@@XZ @ 91 NONAME ; class TDesC16 const & VPbkContactStoreUris::SimGlobalAdnUri(void)
	?CurrentSeparator@CPbk2SortOrderManager@@QBEABVTDesC16@@XZ @ 92 NONAME ; class TDesC16 const & CPbk2SortOrderManager::CurrentSeparator(void) const
	?ContactSelector@CVPbkContactViewDefinition@@QBEPAVMVPbkContactSelector@@XZ @ 93 NONAME ; class MVPbkContactSelector * CVPbkContactViewDefinition::ContactSelector(void) const
	??0CActiveSchedulerWait@@QAE@XZ @ 94 NONAME ; CActiveSchedulerWait::CActiveSchedulerWait(void)
	?CopyContactsL@CVPbkContactManager@@QAEPAVMVPbkContactOperationBase@@ABVMVPbkContactLinkArray@@PAVMVPbkContactStore@@AAVMVPbkBatchOperationObserver@@@Z @ 95 NONAME ; class MVPbkContactOperationBase * CVPbkContactManager::CopyContactsL(class MVPbkContactLinkArray const &, class MVPbkContactStore *, class MVPbkBatchOperationObserver &)
	?Start@CActiveSchedulerWait@@QAEXXZ @ 96 NONAME ; void CActiveSchedulerWait::Start(void)
	?NewL@CVPbkContactManager@@SAPAV1@ABVCVPbkContactStoreUriArray@@PAVRFs@@@Z @ 97 NONAME ; class CVPbkContactManager * CVPbkContactManager::NewL(class CVPbkContactStoreUriArray const &, class RFs *)
	?Delete@CVPbkContactLinkArray@@QAEXH@Z @ 98 NONAME ; void CVPbkContactLinkArray::Delete(int)
	?DefaultSeparator@CPbk2SortOrderManager@@QAEABVTDesC16@@XZ @ 99 NONAME ; class TDesC16 const & CPbk2SortOrderManager::DefaultSeparator(void)
	?SearchStoreConfigurationL@CPbk2StoreConfiguration@@QAEPAVCVPbkContactStoreUriArray@@XZ @ 100 NONAME ; class CVPbkContactStoreUriArray * CPbk2StoreConfiguration::SearchStoreConfigurationL(void)
	?NewLC@CVPbkContactLinkArray@@SAPAV1@XZ @ 101 NONAME ; class CVPbkContactLinkArray * CVPbkContactLinkArray::NewLC(void)
	?CommitContactsL@CVPbkContactManager@@QAEPAVMVPbkContactOperationBase@@ABV?$TArray@PAVMVPbkStoreContact@@@@AAVMVPbkBatchOperationObserver@@@Z @ 102 NONAME ; class MVPbkContactOperationBase * CVPbkContactManager::CommitContactsL(class TArray<class MVPbkStoreContact *> const &, class MVPbkBatchOperationObserver &)
	?SortPolicy@CVPbkContactViewDefinition@@QBE?AW4TVPbkContactViewSortPolicy@@XZ @ 103 NONAME ; enum TVPbkContactViewSortPolicy CVPbkContactViewDefinition::SortPolicy(void) const
	?Compare@TVPbkContactStoreUriPtr@@QBEHABV1@W4TVPbkContactStoreUriComponent@1@@Z @ 104 NONAME ; int TVPbkContactStoreUriPtr::Compare(class TVPbkContactStoreUriPtr const &, enum TVPbkContactStoreUriPtr::TVPbkContactStoreUriComponent) const
	??0TVPbkContactStoreUriPtr@@QAE@XZ @ 105 NONAME ; TVPbkContactStoreUriPtr::TVPbkContactStoreUriPtr(void)
	?SetFlag@CVPbkContactViewDefinition@@QAEXW4TVPbkContactViewFlag@@H@Z @ 106 NONAME ; void CVPbkContactViewDefinition::SetFlag(enum TVPbkContactViewFlag, int)
	?SetSharing@CVPbkContactViewDefinition@@QAEXW4TVPbkContactViewSharing@@@Z @ 107 NONAME ; void CVPbkContactViewDefinition::SetSharing(enum TVPbkContactViewSharing)
	?AppendAllL@CVPbkContactStoreUriArray@@QAEXABV1@@Z @ 108 NONAME ; void CVPbkContactStoreUriArray::AppendAllL(class CVPbkContactStoreUriArray const &)
	?NewL@CPbk2StoreConfiguration@@SAPAV1@XZ @ 109 NONAME ; class CPbk2StoreConfiguration * CPbk2StoreConfiguration::NewL(void)
	?ExternalizedSize@TVPbkContactStoreUriPtr@@UBEHXZ @ 110 NONAME ; int TVPbkContactStoreUriPtr::ExternalizedSize(void) const
	?AppendL@CVPbkContactLinkArray@@QAEXPAVMVPbkContactLink@@@Z @ 111 NONAME ; void CVPbkContactLinkArray::AppendL(class MVPbkContactLink *)
	?Start@CPeriodic@@QAEXVTTimeIntervalMicroSeconds32@@0VTCallBack@@@Z @ 112 NONAME ; void CPeriodic::Start(class TTimeIntervalMicroSeconds32, class TTimeIntervalMicroSeconds32, class TCallBack)
	?NewLC@CVPbkContactStoreUriArray@@SAPAV1@XZ @ 113 NONAME ; class CVPbkContactStoreUriArray * CVPbkContactStoreUriArray::NewLC(void)
	?AddObserverL@CPbk2SortOrderManager@@QAEXAAVMPbk2SortOrderObserver@@@Z @ 114 NONAME ; void CPbk2SortOrderManager::AddObserverL(class MPbk2SortOrderObserver &)
	?SetType@CVPbkContactViewDefinition@@QAEXW4TVPbkContactViewType@@@Z @ 115 NONAME ; void CVPbkContactViewDefinition::SetType(enum TVPbkContactViewType)
	?AppendL@CVPbkContactStoreUriArray@@QAEXABVTVPbkContactStoreUriPtr@@@Z @ 116 NONAME ; void CVPbkContactStoreUriArray::AppendL(class TVPbkContactStoreUriPtr const &)
	?FieldTypes@CVPbkContactManager@@QBEABVMVPbkFieldTypeList@@XZ @ 117 NONAME ; class MVPbkFieldTypeList const & CVPbkContactManager::FieldTypes(void) const
	?NewL@CVPbkContactViewDefinition@@SAPAV1@ABV1@@Z @ 118 NONAME ; class CVPbkContactViewDefinition * CVPbkContactViewDefinition::NewL(class CVPbkContactViewDefinition const &)
	?FindL@CVPbkContactManager@@QAEPAVMVPbkContactOperationBase@@ABVMDesC16Array@@ABVMVPbkFieldTypeList@@AAVMVPbkContactFindFromStoresObserver@@ABVTCallBack@@@Z @ 119 NONAME ; class MVPbkContactOperationBase * CVPbkContactManager::FindL(class MDesC16Array const &, class MVPbkFieldTypeList const &, class MVPbkContactFindFromStoresObserver &, class TCallBack const &)
	?SortOrder@CPbk2SortOrderManager@@QBEABVMVPbkFieldTypeList@@XZ @ 120 NONAME ; class MVPbkFieldTypeList const & CPbk2SortOrderManager::SortOrder(void) const
	?SetSortPolicy@CVPbkContactViewDefinition@@QAEXW4TVPbkContactViewSortPolicy@@@Z @ 121 NONAME ; void CVPbkContactViewDefinition::SetSortPolicy(enum TVPbkContactViewSortPolicy)
	?NewLC@CVPbkContactLinkArray@@SAPAV1@AAVRReadStream@@ABVMVPbkContactStoreList@@@Z @ 122 NONAME ; class CVPbkContactLinkArray * CVPbkContactLinkArray::NewLC(class RReadStream &, class MVPbkContactStoreList const &)
	?NewL@CVPbkContactViewDefinition@@SAPAV1@AAVTResourceReader@@@Z @ 123 NONAME ; class CVPbkContactViewDefinition * CVPbkContactViewDefinition::NewL(class TResourceReader &)
	?SetNameL@CVPbkContactViewDefinition@@QAEXABVTDesC16@@@Z @ 124 NONAME ; void CVPbkContactViewDefinition::SetNameL(class TDesC16 const &)
	?Deque@CActive@@QAEXXZ @ 125 NONAME ; void CActive::Deque(void)
	?FlagIsOn@CVPbkContactViewDefinition@@QBEHW4TVPbkContactViewFlag@@@Z @ 126 NONAME ; int CVPbkContactViewDefinition::FlagIsOn(enum TVPbkContactViewFlag) const

