EXPORTS
	?ReadyForShutdown@CIMCVEngine@@QAEHXZ @ 1 NONAME ; int CIMCVEngine::ReadyForShutdown(void)
	?OpenChats@CIMCVEngine@@QAEAAVMIMCVEngineOpenChats@@XZ @ 2 NONAME ; class MIMCVEngineOpenChats & CIMCVEngine::OpenChats(void)
	?MessageHandler@CIMCVEngine@@QBEAAVMIMCVEngineMessageHandler@@XZ @ 3 NONAME ; class MIMCVEngineMessageHandler & CIMCVEngine::MessageHandler(void) const
	?GetValue@CSPProperty@@QBEHAAW4TOnOff@@@Z @ 4 NONAME ; int CSPProperty::GetValue(enum TOnOff &) const
	?FindServiceIdsL@CSPSettings@@QAEHAAV?$RArray@I@@@Z @ 5 NONAME ; int CSPSettings::FindServiceIdsL(class RArray<unsigned int> &)
	?NewLC@CSPProperty@@SAPAV1@XZ @ 6 NONAME ; class CSPProperty * CSPProperty::NewLC(void)
	?PropertyType@CSPProperty@@SA?AW4TSPItemType@@W4TServicePropertyName@@@Z @ 7 NONAME ; enum TSPItemType CSPProperty::PropertyType(enum TServicePropertyName)
	?NewLC@CCch@@SAPAV1@XZ @ 8 NONAME ; class CCch * CCch::NewLC(void)
	?GetServices@CCch@@QAEHW4TCCHSubserviceType@@AAV?$RPointerArray@VCCchService@@@@@Z @ 9 NONAME ; int CCch::GetServices(enum TCCHSubserviceType, class RPointerArray<class CCchService> &)
	?GetSmileyIconArray@CIMCVEngine@@QAE?AV?$RPointerArray@VCGulIcon@@@@XZ @ 10 NONAME ; class RPointerArray<class CGulIcon> CIMCVEngine::GetSmileyIconArray(void)
	?SetServiceName@CSPEntry@@QAEHABVTDesC16@@@Z @ 11 NONAME ; int CSPEntry::SetServiceName(class TDesC16 const &)
	?ChatInterface@CIMCVEngine@@QBEAAVMIMCVEngineChatInterface@@XZ @ 12 NONAME ; class MIMCVEngineChatInterface & CIMCVEngine::ChatInterface(void) const
	?GetPropertyType@CSPProperty@@QBE?AW4TSPItemType@@XZ @ 13 NONAME ; enum TSPItemType CSPProperty::GetPropertyType(void) const
	?GetProperty@CSPEntry@@QBEHAAPBVCSPProperty@@H@Z @ 14 NONAME ; int CSPEntry::GetProperty(class CSPProperty const * &, int) const
	?AddPropertyL@CSPEntry@@QAEHABVCSPProperty@@@Z @ 15 NONAME ; int CSPEntry::AddPropertyL(class CSPProperty const &)
	?GetValue@CSPProperty@@QBEHAAH@Z @ 16 NONAME ; int CSPProperty::GetValue(int &) const
	?FindPropertyL@CSPSettings@@QAEHIW4TServicePropertyName@@AAVCSPProperty@@@Z @ 17 NONAME ; int CSPSettings::FindPropertyL(unsigned int, enum TServicePropertyName, class CSPProperty &)
	?SetValue@CSPProperty@@QAEHABVTDesC16@@@Z @ 18 NONAME ; int CSPProperty::SetValue(class TDesC16 const &)
	?State@TCchServiceStatus@@QBE?AW4TCCHSubserviceState@@XZ @ 19 NONAME ; enum TCCHSubserviceState TCchServiceStatus::State(void) const
	?UpdateEntryL@CSPSettings@@QAEHABVCSPEntry@@@Z @ 20 NONAME ; int CSPSettings::UpdateEntryL(class CSPEntry const &)
	?NewL@CSPProperty@@SAPAV1@XZ @ 21 NONAME ; class CSPProperty * CSPProperty::NewL(void)
	??0TCchServiceStatus@@QAE@XZ @ 22 NONAME ; TCchServiceStatus::TCchServiceStatus(void)
	??1CSPSettings@@UAE@XZ @ 23 NONAME ; CSPSettings::~CSPSettings(void)
	?Release@CIMCVEngineFactory@@SAXXZ @ 24 NONAME ; void CIMCVEngineFactory::Release(void)
	?ReleaseConnectionL@CIMCVEngine@@QAEXXZ @ 25 NONAME ; void CIMCVEngine::ReleaseConnectionL(void)
	?DeleteProperty@CSPEntry@@QAEHW4TServicePropertyName@@@Z @ 26 NONAME ; int CSPEntry::DeleteProperty(enum TServicePropertyName)
	?SetConnectivityDialogsAllowed@CCch@@QAEXH@Z @ 27 NONAME ; void CCch::SetConnectivityDialogsAllowed(int)
	?SetError@TCchServiceStatus@@QAEXH@Z @ 28 NONAME ; void TCchServiceStatus::SetError(int)
	?AddEntryL@CSPSettings@@QAEHAAVCSPEntry@@@Z @ 29 NONAME ; int CSPSettings::AddEntryL(class CSPEntry &)
	?CopyL@CSPProperty@@QAEXABV1@@Z @ 30 NONAME ; void CSPProperty::CopyL(class CSPProperty const &)
	?GetValue@CSPProperty@@QBEHAAVTDes16@@@Z @ 31 NONAME ; int CSPProperty::GetValue(class TDes16 &) const
	?NewLC@CSPSettings@@SAPAV1@XZ @ 32 NONAME ; class CSPSettings * CSPSettings::NewLC(void)
	?GetSmileStringArray@CIMCVEngine@@QAE?AV?$RPointerArray@VHBufC16@@@@XZ @ 33 NONAME ; class RPointerArray<class HBufC16> CIMCVEngine::GetSmileStringArray(void)
	?LoginL@CIMCVEngine@@QAEHXZ @ 34 NONAME ; int CIMCVEngine::LoginL(void)
	?SettingsCountL@CSPSettings@@QAEHXZ @ 35 NONAME ; int CSPSettings::SettingsCountL(void)
	?GetLanguageId@CIMCVEngine@@QAEHXZ @ 36 NONAME ; int CIMCVEngine::GetLanguageId(void)
	?UpdateProperty@CSPEntry@@QAEHW4TServicePropertyName@@ABVTDesC16@@@Z @ 37 NONAME ; int CSPEntry::UpdateProperty(enum TServicePropertyName, class TDesC16 const &)
	?ResolveServiceStateL@CIMCVEngine@@QAEXXZ @ 38 NONAME ; void CIMCVEngine::ResolveServiceStateL(void)
	?CCHHandler@CIMCVEngine@@QAEAAVMIMCVEngineCchHandler@@XZ @ 39 NONAME ; class MIMCVEngineCchHandler & CIMCVEngine::CCHHandler(void)
	?GetAllProperties@CSPEntry@@QBEABV?$RPointerArray@VCSPProperty@@@@XZ @ 40 NONAME ; class RPointerArray<class CSPProperty> const & CSPEntry::GetAllProperties(void) const
	?LibEntryL@@YAPAVCScriptBase@@AAVCTestModuleIf@@@Z @ 41 NONAME ; class CScriptBase * LibEntryL(class CTestModuleIf &)
	?FindEntryL@CSPSettings@@QAEHIAAVCSPEntry@@@Z @ 42 NONAME ; int CSPSettings::FindEntryL(unsigned int, class CSPEntry &)
	?GetService@CCch@@QAEPAVCCchService@@H@Z @ 43 NONAME ; class CCchService * CCch::GetService(int)
	?GetServiceName@CSPEntry@@QBEABVTDesC16@@XZ @ 44 NONAME ; class TDesC16 const & CSPEntry::GetServiceName(void) const
	?InstanceL@CIMCVEngineFactory@@SAPAVMIMCVEngineFactory@@XZ @ 45 NONAME ; class MIMCVEngineFactory * CIMCVEngineFactory::InstanceL(void)
	?GetLoggedInUserId@CIMCVEngine@@QAEABVTDesC16@@XZ @ 46 NONAME ; class TDesC16 const & CIMCVEngine::GetLoggedInUserId(void)
	?GetServiceId@CIMCVEngine@@QAEHXZ @ 47 NONAME ; int CIMCVEngine::GetServiceId(void)
	?UpdateProperty@CSPEntry@@QAEHW4TServicePropertyName@@W4TOnOff@@@Z @ 48 NONAME ; int CSPEntry::UpdateProperty(enum TServicePropertyName, enum TOnOff)
	?SetValue@CSPProperty@@QAEHH@Z @ 49 NONAME ; int CSPProperty::SetValue(int)
	?Error@TCchServiceStatus@@QBEHXZ @ 50 NONAME ; int TCchServiceStatus::Error(void) const
	?DeleteProperty@CSPEntry@@QAEHH@Z @ 51 NONAME ; int CSPEntry::DeleteProperty(int)
	?PropertyCount@CSPEntry@@QBEHXZ @ 52 NONAME ; int CSPEntry::PropertyCount(void) const
	?SetState@TCchServiceStatus@@QAEXW4TCCHSubserviceState@@@Z @ 53 NONAME ; void TCchServiceStatus::SetState(enum TCCHSubserviceState)
	??1CSPProperty@@UAE@XZ @ 54 NONAME ; CSPProperty::~CSPProperty(void)
	?ConnectivityDialogsAllowed@CCch@@QBEHXZ @ 55 NONAME ; int CCch::ConnectivityDialogsAllowed(void) const
	?NewL@CSPSettings@@SAPAV1@XZ @ 56 NONAME ; class CSPSettings * CSPSettings::NewL(void)
	?NewL@CCch@@SAPAV1@XZ @ 57 NONAME ; class CCch * CCch::NewL(void)
	?SetName@CSPProperty@@QAEHW4TServicePropertyName@@@Z @ 58 NONAME ; int CSPProperty::SetName(enum TServicePropertyName)
	?UpdateProperty@CSPEntry@@QAEHW4TServicePropertyName@@H@Z @ 59 NONAME ; int CSPEntry::UpdateProperty(enum TServicePropertyName, int)
	?GetServiceId@CSPEntry@@QBEIXZ @ 60 NONAME ; unsigned int CSPEntry::GetServiceId(void) const
	?DataType@CSPProperty@@SA?AW4TPropertyDataType@@W4TServicePropertyName@@@Z @ 61 NONAME ; enum TPropertyDataType CSPProperty::DataType(enum TServicePropertyName)
	?NewLC@CSPEntry@@SAPAV1@XZ @ 62 NONAME ; class CSPEntry * CSPEntry::NewLC(void)
	?ServiceName@CIMCVEngine@@QAEABVTDesC16@@XZ @ 63 NONAME ; class TDesC16 const & CIMCVEngine::ServiceName(void)
	?GetPresenceIconL@CIMCVEngine@@QAEPAVCGulIcon@@ABVTDesC8@@@Z @ 64 NONAME ; class CGulIcon * CIMCVEngine::GetPresenceIconL(class TDesC8 const &)
	?GetDataType@CSPProperty@@QBE?AW4TPropertyDataType@@XZ @ 65 NONAME ; enum TPropertyDataType CSPProperty::GetDataType(void) const
	??8CSPProperty@@QBEHABV0@@Z @ 66 NONAME ; int CSPProperty::operator==(class CSPProperty const &) const
	?SetValue@CSPProperty@@QAEHW4TOnOff@@@Z @ 67 NONAME ; int CSPProperty::SetValue(enum TOnOff)
	??1CSPEntry@@UAE@XZ @ 68 NONAME ; CSPEntry::~CSPEntry(void)
	?NewL@CSPEntry@@SAPAV1@XZ @ 69 NONAME ; class CSPEntry * CSPEntry::NewL(void)
	?AddOrUpdatePropertyL@CSPSettings@@QAEHIABVCSPProperty@@@Z @ 70 NONAME ; int CSPSettings::AddOrUpdatePropertyL(unsigned int, class CSPProperty const &)
	?IsLoggedIn@CIMCVEngine@@QBEHXZ @ 71 NONAME ; int CIMCVEngine::IsLoggedIn(void) const
	?GetProperty@CSPEntry@@QBEHAAPBVCSPProperty@@W4TServicePropertyName@@@Z @ 72 NONAME ; int CSPEntry::GetProperty(class CSPProperty const * &, enum TServicePropertyName) const
	?GetBrandId@CIMCVEngine@@QAEABVTDesC8@@XZ @ 73 NONAME ; class TDesC8 const & CIMCVEngine::GetBrandId(void)
	?GetName@CSPProperty@@QBE?AW4TServicePropertyName@@XZ @ 74 NONAME ; enum TServicePropertyName CSPProperty::GetName(void) const
	?GetServiceIds@CCch@@QBEHAAV?$RArray@H@@@Z @ 75 NONAME ; int CCch::GetServiceIds(class RArray<int> &) const

