EXPORTS
	_Z9LibEntryLR13CTestModuleIf @ 1 NONAME
	_Z24ImplementationGroupProxyRi @ 2 NONAME
	_ZTI10CIcpPlugin @ 3 NONAME ; #<TI>#
	_ZTI15MXIMPClientStub @ 4 NONAME ; #<TI>#
	_ZTI16CXmppSettingsApi @ 5 NONAME ; #<TI>#
	_ZTI16MSearchEventStub @ 6 NONAME ; #<TI>#
	_ZTI16MXIMPContextStub @ 7 NONAME ; #<TI>#
	_ZTI18CICPServiceRequest @ 8 NONAME ; #<TI>#
	_ZTI18CIcpServiceManager @ 9 NONAME ; #<TI>#
	_ZTI19MyMXIMPIdentityStub @ 10 NONAME ; #<TI>#
	_ZTI20MSearchKeysEventStub @ 11 NONAME ; #<TI>#
	_ZTI24MyMXIMPObjectFactoryStub @ 12 NONAME ; #<TI>#
	_ZTI26MXIMPContextStateEventStub @ 13 NONAME ; #<TI>#
	_ZTI28MPresentityPresenceEventStub @ 14 NONAME ; #<TI>#
	_ZTI29MXIMPRequestCompleteEventStub @ 15 NONAME ; #<TI>#
	_ZTI32MPresentityGroupContentEventStub @ 16 NONAME ; #<TI>#
	_ZTV10CIcpPlugin @ 17 NONAME ; #<VT>#
	_ZTV15MXIMPClientStub @ 18 NONAME ; #<VT>#
	_ZTV16CXmppSettingsApi @ 19 NONAME ; #<VT>#
	_ZTV16MSearchEventStub @ 20 NONAME ; #<VT>#
	_ZTV16MXIMPContextStub @ 21 NONAME ; #<VT>#
	_ZTV18CICPServiceRequest @ 22 NONAME ; #<VT>#
	_ZTV18CIcpServiceManager @ 23 NONAME ; #<VT>#
	_ZTV19MyMXIMPIdentityStub @ 24 NONAME ; #<VT>#
	_ZTV20MSearchKeysEventStub @ 25 NONAME ; #<VT>#
	_ZTV24MyMXIMPObjectFactoryStub @ 26 NONAME ; #<VT>#
	_ZTV26MXIMPContextStateEventStub @ 27 NONAME ; #<VT>#
	_ZTV28MPresentityPresenceEventStub @ 28 NONAME ; #<VT>#
	_ZTV29MXIMPRequestCompleteEventStub @ 29 NONAME ; #<VT>#
	_ZTV32MPresentityGroupContentEventStub @ 30 NONAME ; #<VT>#

