EXPORTS
	_ZN11CIMCVEngine10CCHHandlerEv @ 1 NONAME
	_ZN11CIMCVEngine10GetBrandIdEv @ 2 NONAME
	_ZN11CIMCVEngine11ServiceNameEv @ 3 NONAME
	_ZN11CIMCVEngine12GetServiceIdEv @ 4 NONAME
	_ZN11CIMCVEngine13GetLanguageIdEv @ 5 NONAME
	_ZN11CIMCVEngine16GetPresenceIconLERK6TDesC8 @ 6 NONAME
	_ZN11CIMCVEngine16ReadyForShutdownEv @ 7 NONAME
	_ZN11CIMCVEngine17GetLoggedInUserIdEv @ 8 NONAME
	_ZN11CIMCVEngine18GetSmileyIconArrayEv @ 9 NONAME
	_ZN11CIMCVEngine18ReleaseConnectionLEv @ 10 NONAME
	_ZN11CIMCVEngine19GetSmileStringArrayEv @ 11 NONAME
	_ZN11CIMCVEngine20ResolveServiceStateLEv @ 12 NONAME
	_ZN11CIMCVEngine6LoginLEv @ 13 NONAME
	_ZN11CIMCVEngine9OpenChatsEv @ 14 NONAME
	_ZN18CIMCVEngineFactory7ReleaseEv @ 15 NONAME
	_ZN18CIMCVEngineFactory9InstanceLEv @ 16 NONAME
	_ZNK11CIMCVEngine10IsLoggedInEv @ 17 NONAME
	_ZNK11CIMCVEngine13ChatInterfaceEv @ 18 NONAME
	_ZNK11CIMCVEngine14MessageHandlerEv @ 19 NONAME
	_ZTI11CIMCVEngine @ 20 NONAME
	_ZTI18CIMCVEngineFactory @ 21 NONAME
	_ZTI20CIMCVEngineOpenChats @ 22 NONAME
	_ZTI22CIMCVEngineMessageBase @ 23 NONAME
	_ZTI22CIMCVEngineTextMessage @ 24 NONAME
	_ZTI24CIMCVEngineChatContainer @ 25 NONAME
	_ZTI25CIMCVEngineMessageCreator @ 26 NONAME
	_ZTI25CIMCVEngineMessageHandler @ 27 NONAME
	_ZTI26CIMCVEngineContextObserver @ 28 NONAME
	_ZTI26CIMCVEngineStorageListener @ 29 NONAME
	_ZTI27CIMCVEngineMessageContainer @ 30 NONAME
	_ZTV11CIMCVEngine @ 31 NONAME
	_ZTV18CIMCVEngineFactory @ 32 NONAME
	_ZTV20CIMCVEngineOpenChats @ 33 NONAME
	_ZTV22CIMCVEngineMessageBase @ 34 NONAME
	_ZTV22CIMCVEngineTextMessage @ 35 NONAME
	_ZTV24CIMCVEngineChatContainer @ 36 NONAME
	_ZTV25CIMCVEngineMessageCreator @ 37 NONAME
	_ZTV25CIMCVEngineMessageHandler @ 38 NONAME
	_ZTV26CIMCVEngineContextObserver @ 39 NONAME
	_ZTV26CIMCVEngineStorageListener @ 40 NONAME
	_ZTV27CIMCVEngineMessageContainer @ 41 NONAME

