EXPORTS
	_Z9LibEntryLv @ 1 NONAME
	_Z15SetRequirementsRP16CTestModuleParamRm @ 2 NONAME
	_ZN11TCCAFactory13NewParameterLEv @ 3 NONAME
	_ZN11TCCAFactory14NewConnectionLEv @ 4 NONAME
	_ZN17CVIMPSTCmdHandler4NewLER13MVIMPSTEngine @ 5 NONAME
	_ZN21CVPbkContactLinkArray15ResetAndDestroyEv @ 6 NONAME
	_ZN21CVPbkContactLinkArray4NewLEv @ 7 NONAME
	_ZN21CVPbkContactLinkArray5NewLCER11RReadStreamRK21MVPbkContactStoreList @ 8 NONAME
	_ZN21CVPbkContactLinkArray5NewLCERK6TDesC8RK21MVPbkContactStoreList @ 9 NONAME
	_ZN21CVPbkContactLinkArray5NewLCEv @ 10 NONAME
	_ZN21CVPbkContactLinkArray5ResetEv @ 11 NONAME
	_ZN21CVPbkContactLinkArray6DeleteEi @ 12 NONAME
	_ZN21CVPbkContactLinkArray6RemoveEi @ 13 NONAME
	_ZN21CVPbkContactLinkArray7AppendLEP16MVPbkContactLink @ 14 NONAME
	_ZN21CVPbkContactLinkArray7InsertLEP16MVPbkContactLinki @ 15 NONAME
	_ZN28CVIMPSTStorageManagerFactory15InitialiseViewLEmRK7TDesC16S2_ @ 16 NONAME
	_ZN28CVIMPSTStorageManagerFactory18InitialiseLibraryLEv @ 17 NONAME
	_ZN28CVIMPSTStorageManagerFactory19ItemModelInterfaceLEm @ 18 NONAME
	_ZN28CVIMPSTStorageManagerFactory21ContactListInterfaceLEm @ 19 NONAME
	_ZN28CVIMPSTStorageManagerFactory7ReleaseEv @ 20 NONAME
	_ZNK21CVPbkContactLinkArray16PackedBufferSizeEv @ 21 NONAME
	_ZTI17CVIMPSTCmdHandler @ 22 NONAME
	_ZTI17MCCAParameterstub @ 23 NONAME
	_ZTI17vimpstengine_stub @ 24 NONAME
	_ZTI18MCCAConnectionStub @ 25 NONAME
	_ZTI19CVIMPSTProcessArray @ 26 NONAME
	_ZTI20CVPbkContactLinkStub @ 27 NONAME
	_ZTI20searchextention_stub @ 28 NONAME
	_ZTI21CVPbkContactLinkArray @ 29 NONAME
	_ZTI22extentionfeatures_stub @ 30 NONAME
	_ZTI22vimpstcmdobserver_stub @ 31 NONAME
	_ZTI22vimpstserviceview_stub @ 32 NONAME
	_ZTI23vimpststorecontact_stub @ 33 NONAME
	_ZTI25CVIMPSTProcessContactItem @ 34 NONAME
	_ZTI25CVIMPSTProcessOwnDataItem @ 35 NONAME
	_ZTI25vimpststoragecontact_stub @ 36 NONAME
	_ZTI26vimpststorageitemlist_stub @ 37 NONAME
	_ZTI27vimpstprocessarrayitem_stub @ 38 NONAME
	_ZTI29CVIMPSTProcessContactListItem @ 39 NONAME
	_ZTI29vimpststoragecontactlist_stub @ 40 NONAME
	_ZTI31CVIMPSTProcessFriendRequestItem @ 41 NONAME
	_ZTI31vimpstprocessarrayobserver_stub @ 42 NONAME
	_ZTI32CVIMPSTCmdProcessSelectedContact @ 43 NONAME
	_ZTI32CVIMPSTProcessUnknownContactItem @ 44 NONAME
	_ZTV17CVIMPSTCmdHandler @ 45 NONAME
	_ZTV17MCCAParameterstub @ 46 NONAME
	_ZTV17vimpstengine_stub @ 47 NONAME
	_ZTV18MCCAConnectionStub @ 48 NONAME
	_ZTV19CVIMPSTProcessArray @ 49 NONAME
	_ZTV20CVPbkContactLinkStub @ 50 NONAME
	_ZTV20searchextention_stub @ 51 NONAME
	_ZTV21CVPbkContactLinkArray @ 52 NONAME
	_ZTV22extentionfeatures_stub @ 53 NONAME
	_ZTV22vimpstcmdobserver_stub @ 54 NONAME
	_ZTV22vimpstserviceview_stub @ 55 NONAME
	_ZTV23vimpststorecontact_stub @ 56 NONAME
	_ZTV25CVIMPSTProcessContactItem @ 57 NONAME
	_ZTV25CVIMPSTProcessOwnDataItem @ 58 NONAME
	_ZTV25vimpststoragecontact_stub @ 59 NONAME
	_ZTV26vimpststorageitemlist_stub @ 60 NONAME
	_ZTV27vimpstprocessarrayitem_stub @ 61 NONAME
	_ZTV29CVIMPSTProcessContactListItem @ 62 NONAME
	_ZTV29vimpststoragecontactlist_stub @ 63 NONAME
	_ZTV31CVIMPSTProcessFriendRequestItem @ 64 NONAME
	_ZTV31vimpstprocessarrayobserver_stub @ 65 NONAME
	_ZTV32CVIMPSTCmdProcessSelectedContact @ 66 NONAME
	_ZTV32CVIMPSTProcessUnknownContactItem @ 67 NONAME

