EXPORTS
	_Z16CreateTestSuiteLv @ 1 NONAME
	_ZN15CIMCacheFactory15CreateAccessorLEiRK7TDesC16 @ 2 NONAME
	_ZN20CVIMPSTSettingsStore4NewLEv @ 3 NONAME
	_ZN20CVIMPSTSettingsStore5NewLCEv @ 4 NONAME
	_ZN25CVIMPSTEngineImageHandler21ProcessImageFromDataLERK6TDesC8S2_ @ 5 NONAME
	_ZN25CVIMPSTEngineImageHandler21ProcessImageFromFileLERK7TDesC16RK6TDesC8 @ 6 NONAME
	_ZN25CVIMPSTEngineImageHandler4NewLEv @ 7 NONAME
	_ZN25CVIMPSTEngineImageHandler5NewLCEv @ 8 NONAME
	_ZN25MVIMPSTEngineIMSubService4CastER23MVIMPSTEngineSubService @ 9 NONAME
	_ZN25MVIMPSTEngineIMSubService4CastERK23MVIMPSTEngineSubService @ 10 NONAME
	_ZN28CVIMPSTStorageManagerFactory15InitialiseViewLEmRK7TDesC16S2_ @ 11 NONAME
	_ZN28CVIMPSTStorageManagerFactory18InitialiseLibraryLEv @ 12 NONAME
	_ZN28CVIMPSTStorageManagerFactory19ItemModelInterfaceLEm @ 13 NONAME
	_ZN28CVIMPSTStorageManagerFactory21ContactListInterfaceLEm @ 14 NONAME
	_ZN28CVIMPSTStorageManagerFactory7ReleaseEv @ 15 NONAME
	_ZN31MVIMPSTEnginePresenceSubService4CastER23MVIMPSTEngineSubService @ 16 NONAME
	_ZN31MVIMPSTEnginePresenceSubService4CastERK23MVIMPSTEngineSubService @ 17 NONAME
	_ZN31MVIMPSTEngineSearchMgrExtention4CastER30MVIMPSTEngineExtentionFeatures @ 18 NONAME
	_ZN31MVIMPSTEngineSearchMgrExtention4CastERK30MVIMPSTEngineExtentionFeatures @ 19 NONAME
	_ZN33MVIMPSTEngineContactMgmtExtention4CastER30MVIMPSTEngineExtentionFeatures @ 20 NONAME
	_ZN33MVIMPSTEngineContactMgmtExtention4CastERK30MVIMPSTEngineExtentionFeatures @ 21 NONAME
	_ZTI12MyCchService @ 22 NONAME
	_ZTI14T_VimpstEngine @ 23 NONAME
	_ZTI15CIMCacheFactory @ 24 NONAME
	_ZTI15MXIMPClientStub @ 25 NONAME
	_ZTI16MSearchEventStub @ 26 NONAME
	_ZTI16MXIMPContextStub @ 27 NONAME
	_ZTI17MPresenceInfoStub @ 28 NONAME
	_ZTI19MyMXIMPIdentityStub @ 29 NONAME
	_ZTI20CActiveSchedulerWait @ 30 NONAME
	_ZTI20MSearchKeysEventStub @ 31 NONAME
	_ZTI21MPresenceWatchingStub @ 32 NONAME
	_ZTI21T_VIMPSTEngineRequest @ 33 NONAME
	_ZTI22MPresenceBlockInfoStub @ 34 NONAME
	_ZTI22MPresenceInfoFieldStub @ 35 NONAME
	_ZTI22MyMPresenceFeatureStub @ 36 NONAME
	_ZTI22MyPresentityGroupsStub @ 37 NONAME
	_ZTI22vimpstserviceview_stub @ 38 NONAME
	_ZTI23MPersonPresenceInfoStub @ 39 NONAME
	_ZTI23MPresenceBuddyInfo2Stub @ 40 NONAME
	_ZTI23MPresencePublishingStub @ 41 NONAME
	_ZTI24MServicePresenceInfoStub @ 42 NONAME
	_ZTI24MyMXIMPObjectFactoryStub @ 43 NONAME
	_ZTI24T_VimpstEngineCchHandler @ 44 NONAME
	_ZTI25MPresenceCacheReader2Stub @ 45 NONAME
	_ZTI26MPresenceAuthorizationStub @ 46 NONAME
	_ZTI26MPresenceBuddyInfoListStub @ 47 NONAME
	_ZTI26MPresenceObjectFactoryStub @ 48 NONAME
	_ZTI26MXIMPContextStateEventStub @ 49 NONAME
	_ZTI26MyVIMPSTStorageContactStub @ 50 NONAME
	_ZTI26T_VimpstEngineImSubService @ 51 NONAME
	_ZTI27T_VIMPSTEngineRequestMapper @ 52 NONAME
	_ZTI28MPresentityPresenceEventStub @ 53 NONAME
	_ZTI28T_VimpstEngineVoipSubService @ 54 NONAME
	_ZTI29MPresenceGrantRequestInfoStub @ 55 NONAME
	_ZTI29MXIMPRequestCompleteEventStub @ 56 NONAME
	_ZTI30MyVIMPSTStorageContactListStub @ 57 NONAME
	_ZTI31MPresenceInfoFieldValueEnumStub @ 58 NONAME
	_ZTI31MPresenceInfoFieldValueTextStub @ 59 NONAME
	_ZTI32MPresenceInfoFieldCollectionStub @ 60 NONAME
	_ZTI32MPresentityGroupContentEventStub @ 61 NONAME
	_ZTI32T_VimpstEnginePresenceSubService @ 62 NONAME
	_ZTI33T_VIMPSTEngineServiceTableFetcher @ 63 NONAME
	_ZTI34MPresenceGrantRequestListEventStub @ 64 NONAME
	_ZTI34T_VIMPSTEngineContactMgmtExtention @ 65 NONAME
	_ZTI34T_VimpstEngineSessionCntxtObserver @ 66 NONAME
	_ZTI7CActive @ 67 NONAME
	_ZTV12MyCchService @ 68 NONAME
	_ZTV14T_VimpstEngine @ 69 NONAME
	_ZTV15CIMCacheFactory @ 70 NONAME
	_ZTV15MXIMPClientStub @ 71 NONAME
	_ZTV16MSearchEventStub @ 72 NONAME
	_ZTV16MXIMPContextStub @ 73 NONAME
	_ZTV17MPresenceInfoStub @ 74 NONAME
	_ZTV19MyMXIMPIdentityStub @ 75 NONAME
	_ZTV20CActiveSchedulerWait @ 76 NONAME
	_ZTV20MSearchKeysEventStub @ 77 NONAME
	_ZTV21MPresenceWatchingStub @ 78 NONAME
	_ZTV21T_VIMPSTEngineRequest @ 79 NONAME
	_ZTV22MPresenceBlockInfoStub @ 80 NONAME
	_ZTV22MPresenceInfoFieldStub @ 81 NONAME
	_ZTV22MyMPresenceFeatureStub @ 82 NONAME
	_ZTV22MyPresentityGroupsStub @ 83 NONAME
	_ZTV22vimpstserviceview_stub @ 84 NONAME
	_ZTV23MPersonPresenceInfoStub @ 85 NONAME
	_ZTV23MPresenceBuddyInfo2Stub @ 86 NONAME
	_ZTV23MPresencePublishingStub @ 87 NONAME
	_ZTV24MServicePresenceInfoStub @ 88 NONAME
	_ZTV24MyMXIMPObjectFactoryStub @ 89 NONAME
	_ZTV24T_VimpstEngineCchHandler @ 90 NONAME
	_ZTV25MPresenceCacheReader2Stub @ 91 NONAME
	_ZTV26MPresenceAuthorizationStub @ 92 NONAME
	_ZTV26MPresenceBuddyInfoListStub @ 93 NONAME
	_ZTV26MPresenceObjectFactoryStub @ 94 NONAME
	_ZTV26MXIMPContextStateEventStub @ 95 NONAME
	_ZTV26MyVIMPSTStorageContactStub @ 96 NONAME
	_ZTV26T_VimpstEngineImSubService @ 97 NONAME
	_ZTV27T_VIMPSTEngineRequestMapper @ 98 NONAME
	_ZTV28MPresentityPresenceEventStub @ 99 NONAME
	_ZTV28T_VimpstEngineVoipSubService @ 100 NONAME
	_ZTV29MPresenceGrantRequestInfoStub @ 101 NONAME
	_ZTV29MXIMPRequestCompleteEventStub @ 102 NONAME
	_ZTV30MyVIMPSTStorageContactListStub @ 103 NONAME
	_ZTV31MPresenceInfoFieldValueEnumStub @ 104 NONAME
	_ZTV31MPresenceInfoFieldValueTextStub @ 105 NONAME
	_ZTV32MPresenceInfoFieldCollectionStub @ 106 NONAME
	_ZTV32MPresentityGroupContentEventStub @ 107 NONAME
	_ZTV32T_VimpstEnginePresenceSubService @ 108 NONAME
	_ZTV33T_VIMPSTEngineServiceTableFetcher @ 109 NONAME
	_ZTV34MPresenceGrantRequestListEventStub @ 110 NONAME
	_ZTV34T_VIMPSTEngineContactMgmtExtention @ 111 NONAME
	_ZTV34T_VimpstEngineSessionCntxtObserver @ 112 NONAME
	_ZTV7CActive @ 113 NONAME

