EXPORTS
	?LibEntryL@@YAPAVCTestModuleBase@@XZ @ 1 NONAME ; class CTestModuleBase * __cdecl LibEntryL(void)
	?SetRequirements@@YAHAAPAVCTestModuleParam@@AAK@Z @ 2 NONAME ; int __cdecl SetRequirements(class CTestModuleParam * &,unsigned long &)
	?InitialiseLibraryL@CVIMPSTStorageManagerFactory@@SAXXZ @ 3 NONAME ; void CVIMPSTStorageManagerFactory::InitialiseLibraryL(void)
	?NewLC@CVPbkContactLinkArray@@SAPAV1@ABVTDesC8@@ABVMVPbkContactStoreList@@@Z @ 4 NONAME ; class CVPbkContactLinkArray * CVPbkContactLinkArray::NewLC(class TDesC8 const &, class MVPbkContactStoreList const &)
	?Remove@CVPbkContactLinkArray@@QAEXH@Z @ 5 NONAME ; void CVPbkContactLinkArray::Remove(int)
	?Delete@CVPbkContactLinkArray@@QAEXH@Z @ 6 NONAME ; void CVPbkContactLinkArray::Delete(int)
	?NewLC@CVPbkContactLinkArray@@SAPAV1@XZ @ 7 NONAME ; class CVPbkContactLinkArray * CVPbkContactLinkArray::NewLC(void)
	?ResetAndDestroy@CVPbkContactLinkArray@@QAEXXZ @ 8 NONAME ; void CVPbkContactLinkArray::ResetAndDestroy(void)
	?NewParameterL@TCCAFactory@@SAPAVMCCAParameter@@XZ @ 9 NONAME ; class MCCAParameter * TCCAFactory::NewParameterL(void)
	?NewL@CVPbkContactLinkArray@@SAPAV1@XZ @ 10 NONAME ; class CVPbkContactLinkArray * CVPbkContactLinkArray::NewL(void)
	?NewConnectionL@TCCAFactory@@SAPAVMCCAConnection@@XZ @ 11 NONAME ; class MCCAConnection * TCCAFactory::NewConnectionL(void)
	?InitialiseViewL@CVIMPSTStorageManagerFactory@@SAXKABVTDesC16@@0@Z @ 12 NONAME ; void CVIMPSTStorageManagerFactory::InitialiseViewL(unsigned long, class TDesC16 const &, class TDesC16 const &)
	?AppendL@CVPbkContactLinkArray@@QAEXPAVMVPbkContactLink@@@Z @ 13 NONAME ; void CVPbkContactLinkArray::AppendL(class MVPbkContactLink *)
	?ItemModelInterfaceL@CVIMPSTStorageManagerFactory@@SAPAVMVIMPSTStorageItemModel@@K@Z @ 14 NONAME ; class MVIMPSTStorageItemModel * CVIMPSTStorageManagerFactory::ItemModelInterfaceL(unsigned long)
	?Reset@CVPbkContactLinkArray@@QAEXXZ @ 15 NONAME ; void CVPbkContactLinkArray::Reset(void)
	?ContactListInterfaceL@CVIMPSTStorageManagerFactory@@SAPAVMVIMPSTStorageServiceView@@K@Z @ 16 NONAME ; class MVIMPSTStorageServiceView * CVIMPSTStorageManagerFactory::ContactListInterfaceL(unsigned long)
	?Release@CVIMPSTStorageManagerFactory@@SAHXZ @ 17 NONAME ; int CVIMPSTStorageManagerFactory::Release(void)
	?NewL@CVIMPSTCmdHandler@@SAPAV1@AAVMVIMPSTEngine@@@Z @ 18 NONAME ; class CVIMPSTCmdHandler * CVIMPSTCmdHandler::NewL(class MVIMPSTEngine &)
	?PackedBufferSize@CVPbkContactLinkArray@@QBEHXZ @ 19 NONAME ; int CVPbkContactLinkArray::PackedBufferSize(void) const
	?InsertL@CVPbkContactLinkArray@@QAEXPAVMVPbkContactLink@@H@Z @ 20 NONAME ; void CVPbkContactLinkArray::InsertL(class MVPbkContactLink *, int)
	?NewLC@CVPbkContactLinkArray@@SAPAV1@AAVRReadStream@@ABVMVPbkContactStoreList@@@Z @ 21 NONAME ; class CVPbkContactLinkArray * CVPbkContactLinkArray::NewLC(class RReadStream &, class MVPbkContactStoreList const &)

